target datalayout = "e-m:e-p270:32:32-p271:32:32-p272:64:64-i64:64-i128:128-f80:128-n8:16:32:64-S128"
target triple = "x86_64-pc-linux-gnu"

%struct._object = type { %union.anon, ptr }
%union.anon = type { i64 }
%struct.readlinestate = type { ptr, ptr, ptr, ptr, ptr, ptr }
%struct.anon = type { i32, i32 }
%struct.PyVarObject = type { %struct._object, i64 }
%struct.PyListObject = type { %struct.PyVarObject, ptr, i64 }

@_Py_NoneStruct = external global %struct._object, align 8
@.str.34 = private unnamed_addr constant [16 x i8] c"surrogateescape\00", align 1
@.str.45 = private unnamed_addr constant [4 x i8] c"NNi\00", align 1

; Function Attrs: alwaysinline nounwind uwtable
define internal i32 @_Py_IsImmortal(ptr noundef %0) #4 {
  %2 = alloca ptr, align 8
  store ptr %0, ptr %2, align 8, !tbaa !19
  %3 = load ptr, ptr %2, align 8, !tbaa !19
  %4 = getelementptr inbounds nuw %struct._object, ptr %3, i32 0, i32 0
  %5 = getelementptr inbounds nuw %struct.anon, ptr %4, i32 0, i32 0
  %6 = load i32, ptr %5, align 8, !tbaa !23
  %7 = icmp slt i32 %6, 0
  %8 = zext i1 %7 to i32
  ret i32 %8
}

; Function Attrs: inlinehint nounwind uwtable
define internal ptr @get_readline_state(ptr noundef %0) #5 {
  %2 = alloca ptr, align 8
  %3 = alloca ptr, align 8
  store ptr %0, ptr %2, align 8, !tbaa !19
  call void @llvm.lifetime.start.p0(i64 8, ptr %3) #10
  %4 = load ptr, ptr %2, align 8, !tbaa !19
  %5 = call ptr @PyModule_GetState(ptr noundef %4)
  store ptr %5, ptr %3, align 8, !tbaa !20
  %6 = load ptr, ptr %3, align 8, !tbaa !20
  call void @llvm.lifetime.end.p0(i64 8, ptr %3) #10
  ret ptr %6
}

; Function Attrs: alwaysinline nounwind uwtable
define internal void @Py_INCREF(ptr noundef %0) #4 {
  %2 = alloca ptr, align 8
  %3 = alloca i32, align 4
  %4 = alloca i32, align 4
  store ptr %0, ptr %2, align 8, !tbaa !19
  call void @llvm.lifetime.start.p0(i64 4, ptr %3) #10
  %5 = load ptr, ptr %2, align 8, !tbaa !19
  %6 = getelementptr inbounds nuw %struct._object, ptr %5, i32 0, i32 0
  %7 = getelementptr inbounds nuw %struct.anon, ptr %6, i32 0, i32 0
  %8 = load i32, ptr %7, align 8, !tbaa !23
  store i32 %8, ptr %3, align 4, !tbaa !8
  %9 = load i32, ptr %3, align 4, !tbaa !8
  %10 = icmp slt i32 %9, 0
  br i1 %10, label %11, label %12

11:                                               ; preds = %1
  store i32 1, ptr %4, align 4
  br label %18

12:                                               ; preds = %1
  %13 = load i32, ptr %3, align 4, !tbaa !8
  %14 = add i32 %13, 1
  %15 = load ptr, ptr %2, align 8, !tbaa !19
  %16 = getelementptr inbounds nuw %struct._object, ptr %15, i32 0, i32 0
  %17 = getelementptr inbounds nuw %struct.anon, ptr %16, i32 0, i32 0
  store i32 %14, ptr %17, align 8, !tbaa !23
  store i32 0, ptr %4, align 4
  br label %18

18:                                               ; preds = %12, %11
  call void @llvm.lifetime.end.p0(i64 4, ptr %3) #10
  %19 = load i32, ptr %4, align 4
  switch i32 %19, label %21 [
    i32 0, label %20
    i32 1, label %20
  ]

20:                                               ; preds = %18, %18
  ret void

21:                                               ; preds = %18
  unreachable
}

; Function Attrs: inlinehint nounwind uwtable
define internal void @Py_XDECREF(ptr noundef %0) #5 {
  %2 = alloca ptr, align 8
  store ptr %0, ptr %2, align 8, !tbaa !19
  %3 = load ptr, ptr %2, align 8, !tbaa !19
  %4 = icmp ne ptr %3, null
  br i1 %4, label %5, label %7

5:                                                ; preds = %1
  %6 = load ptr, ptr %2, align 8, !tbaa !19
  call void @Py_DECREF(ptr noundef %6)
  br label %7

7:                                                ; preds = %5, %1
  ret void
}

; Function Attrs: alwaysinline nounwind uwtable
define internal void @Py_DECREF(ptr noundef %0) #4 {
  %2 = alloca ptr, align 8
  store ptr %0, ptr %2, align 8, !tbaa !19
  %3 = load ptr, ptr %2, align 8, !tbaa !19
  %4 = call i32 @_Py_IsImmortal(ptr noundef %3)
  %5 = icmp ne i32 %4, 0
  br i1 %5, label %6, label %7

6:                                                ; preds = %1
  br label %16

7:                                                ; preds = %1
  %8 = load ptr, ptr %2, align 8, !tbaa !19
  %9 = getelementptr inbounds nuw %struct._object, ptr %8, i32 0, i32 0
  %10 = getelementptr inbounds nuw %struct.anon, ptr %9, i32 0, i32 0
  %11 = load i32, ptr %10, align 8, !tbaa !23
  %12 = add i32 %11, -1
  store i32 %12, ptr %10, align 8, !tbaa !23
  %13 = icmp eq i32 %12, 0
  br i1 %13, label %14, label %16

14:                                               ; preds = %7
  %15 = load ptr, ptr %2, align 8, !tbaa !19
  call void @_Py_Dealloc(ptr noundef %15)
  br label %16

16:                                               ; preds = %6, %14, %7
  ret void
}

; Function Attrs: inlinehint nounwind uwtable
define internal void @PyList_SET_ITEM(ptr noundef %0, i64 noundef %1, ptr noundef %2) #5 {
  %4 = alloca ptr, align 8
  %5 = alloca i64, align 8
  %6 = alloca ptr, align 8
  %7 = alloca ptr, align 8
  store ptr %0, ptr %4, align 8, !tbaa !19
  store i64 %1, ptr %5, align 8, !tbaa !24
  store ptr %2, ptr %6, align 8, !tbaa !19
  call void @llvm.lifetime.start.p0(i64 8, ptr %7) #10
  %8 = load ptr, ptr %4, align 8, !tbaa !19
  store ptr %8, ptr %7, align 8, !tbaa !20
  %9 = load ptr, ptr %6, align 8, !tbaa !19
  %10 = load ptr, ptr %7, align 8, !tbaa !20
  %11 = getelementptr inbounds nuw %struct.PyListObject, ptr %10, i32 0, i32 1
  %12 = load ptr, ptr %11, align 8, !tbaa !56
  %13 = load i64, ptr %5, align 8, !tbaa !24
  %14 = getelementptr ptr, ptr %12, i64 %13
  store ptr %9, ptr %14, align 8, !tbaa !19
  call void @llvm.lifetime.end.p0(i64 8, ptr %7) #10
  ret void
}

; Function Attrs: nounwind uwtable
define internal ptr @decode(ptr noundef %0) #0 {
  %2 = alloca ptr, align 8
  store ptr %0, ptr %2, align 8, !tbaa !3
  %3 = load ptr, ptr %2, align 8, !tbaa !3
  %4 = call ptr @PyUnicode_DecodeLocale(ptr noundef %3, ptr noundef @.str.34)
  ret ptr %4
}

; Function Attrs: inlinehint nounwind uwtable
define internal ptr @get_hook_module_state() #5 {
  %1 = alloca ptr, align 8
  %2 = alloca ptr, align 8
  %3 = alloca i32, align 4
  %4 = alloca ptr, align 8
  call void @llvm.lifetime.start.p0(i64 8, ptr %2) #10
  %5 = call ptr @PyState_FindModule(ptr noundef @readlinemodule)
  store ptr %5, ptr %2, align 8, !tbaa !19
  %6 = load ptr, ptr %2, align 8, !tbaa !19
  %7 = icmp eq ptr %6, null
  br i1 %7, label %8, label %9

8:                                                ; preds = %0
  call void @PyErr_Clear()
  store ptr null, ptr %1, align 8
  store i32 1, ptr %3, align 4
  br label %15

9:                                                ; preds = %0
  %10 = load ptr, ptr %2, align 8, !tbaa !19
  call void @Py_INCREF(ptr noundef %10)
  call void @llvm.lifetime.start.p0(i64 8, ptr %4) #10
  %11 = load ptr, ptr %2, align 8, !tbaa !19
  %12 = call ptr @get_readline_state(ptr noundef %11)
  store ptr %12, ptr %4, align 8, !tbaa !20
  %13 = load ptr, ptr %2, align 8, !tbaa !19
  call void @Py_DECREF(ptr noundef %13)
  %14 = load ptr, ptr %4, align 8, !tbaa !20
  store ptr %14, ptr %1, align 8
  store i32 1, ptr %3, align 4
  call void @llvm.lifetime.end.p0(i64 8, ptr %4) #10
  br label %15

15:                                               ; preds = %9, %8
  call void @llvm.lifetime.end.p0(i64 8, ptr %2) #10
  %16 = load ptr, ptr %1, align 8
  ret ptr %16
}

; Function Attrs: nounwind uwtable
define internal void @on_completion_display_matches_hook(ptr noundef %0, i32 noundef %1, i32 noundef %2) #0 {
  %4 = alloca ptr, align 8
  %5 = alloca i32, align 4
  %6 = alloca i32, align 4
  %7 = alloca i32, align 4
  %8 = alloca ptr, align 8
  %9 = alloca ptr, align 8
  %10 = alloca ptr, align 8
  %11 = alloca ptr, align 8
  %12 = alloca i32, align 4
  %13 = alloca ptr, align 8
  %14 = alloca i32, align 4
  %15 = alloca ptr, align 8
  %16 = alloca ptr, align 8
  store ptr %0, ptr %4, align 8, !tbaa !52
  store i32 %1, ptr %5, align 4, !tbaa !8
  store i32 %2, ptr %6, align 4, !tbaa !8
  call void @llvm.lifetime.start.p0(i64 4, ptr %7) #10
  call void @llvm.lifetime.start.p0(i64 8, ptr %8) #10
  call void @llvm.lifetime.start.p0(i64 8, ptr %9) #10
  store ptr null, ptr %9, align 8, !tbaa !19
  call void @llvm.lifetime.start.p0(i64 8, ptr %10) #10
  store ptr null, ptr %10, align 8, !tbaa !19
  call void @llvm.lifetime.start.p0(i64 8, ptr %11) #10
  store ptr null, ptr %11, align 8, !tbaa !19
  call void @llvm.lifetime.start.p0(i64 4, ptr %12) #10
  %17 = call i32 @PyGILState_Ensure()
  store i32 %17, ptr %12, align 4, !tbaa !8
  call void @llvm.lifetime.start.p0(i64 8, ptr %13) #10
  %18 = call ptr @get_hook_module_state()
  store ptr %18, ptr %13, align 8, !tbaa !20
  %19 = load ptr, ptr %13, align 8, !tbaa !20
  %20 = icmp eq ptr %19, null
  br i1 %20, label %21, label %23

21:                                               ; preds = %3
  %22 = load i32, ptr %12, align 4, !tbaa !8
  call void @PyGILState_Release(i32 noundef %22)
  store i32 1, ptr %14, align 4
  br label %97

23:                                               ; preds = %3
  %24 = load i32, ptr %5, align 4, !tbaa !8
  %25 = sext i32 %24 to i64
  %26 = call ptr @PyList_New(i64 noundef %25)
  store ptr %26, ptr %9, align 8, !tbaa !19
  %27 = load ptr, ptr %9, align 8, !tbaa !19
  %28 = icmp eq ptr %27, null
  br i1 %28, label %29, label %30

29:                                               ; preds = %23
  br label %92

30:                                               ; preds = %23
  store i32 0, ptr %7, align 4, !tbaa !8
  br label %31

31:                                               ; preds = %51, %30
  %32 = load i32, ptr %7, align 4, !tbaa !8
  %33 = load i32, ptr %5, align 4, !tbaa !8
  %34 = icmp slt i32 %32, %33
  br i1 %34, label %35, label %54

35:                                               ; preds = %31
  %36 = load ptr, ptr %4, align 8, !tbaa !52
  %37 = load i32, ptr %7, align 4, !tbaa !8
  %38 = add i32 %37, 1
  %39 = sext i32 %38 to i64
  %40 = getelementptr ptr, ptr %36, i64 %39
  %41 = load ptr, ptr %40, align 8, !tbaa !3
  %42 = call ptr @decode(ptr noundef %41)
  store ptr %42, ptr %10, align 8, !tbaa !19
  %43 = load ptr, ptr %10, align 8, !tbaa !19
  %44 = icmp eq ptr %43, null
  br i1 %44, label %45, label %46

45:                                               ; preds = %35
  br label %92

46:                                               ; preds = %35
  %47 = load ptr, ptr %9, align 8, !tbaa !19
  %48 = load i32, ptr %7, align 4, !tbaa !8
  %49 = sext i32 %48 to i64
  %50 = load ptr, ptr %10, align 8, !tbaa !19
  call void @PyList_SET_ITEM(ptr noundef %47, i64 noundef %49, ptr noundef %50)
  br label %51

51:                                               ; preds = %46
  %52 = load i32, ptr %7, align 4, !tbaa !8
  %53 = add i32 %52, 1
  store i32 %53, ptr %7, align 4, !tbaa !8
  br label %31, !llvm.loop !54

54:                                               ; preds = %31
  %55 = load ptr, ptr %4, align 8, !tbaa !52
  %56 = getelementptr ptr, ptr %55, i64 0
  %57 = load ptr, ptr %56, align 8, !tbaa !3
  %58 = call ptr @decode(ptr noundef %57)
  store ptr %58, ptr %8, align 8, !tbaa !19
  %59 = load ptr, ptr %13, align 8, !tbaa !20
  %60 = getelementptr inbounds nuw %struct.readlinestate, ptr %59, i32 0, i32 0
  %61 = load ptr, ptr %60, align 8, !tbaa !32
  %62 = load ptr, ptr %8, align 8, !tbaa !19
  %63 = load ptr, ptr %9, align 8, !tbaa !19
  %64 = load i32, ptr %6, align 4, !tbaa !8
  %65 = call ptr (ptr, ptr, ...) @PyObject_CallFunction(ptr noundef %61, ptr noundef @.str.45, ptr noundef %62, ptr noundef %63, i32 noundef %64)
  store ptr %65, ptr %11, align 8, !tbaa !19
  store ptr null, ptr %9, align 8, !tbaa !19
  %66 = load ptr, ptr %11, align 8, !tbaa !19
  %67 = icmp eq ptr %66, null
  br i1 %67, label %78, label %68

68:                                               ; preds = %54
  %69 = load ptr, ptr %11, align 8, !tbaa !19
  %70 = icmp ne ptr %69, @_Py_NoneStruct
  br i1 %70, label %71, label %79

71:                                               ; preds = %68
  %72 = load ptr, ptr %11, align 8, !tbaa !19
  %73 = call i64 @PyLong_AsLong(ptr noundef %72)
  %74 = icmp eq i64 %73, -1
  br i1 %74, label %75, label %79

75:                                               ; preds = %71
  %76 = call ptr @PyErr_Occurred()
  %77 = icmp ne ptr %76, null
  br i1 %77, label %78, label %79

78:                                               ; preds = %75, %54
  br label %92

79:                                               ; preds = %75, %71, %68
  br label %80

80:                                               ; preds = %79
  call void @llvm.lifetime.start.p0(i64 8, ptr %15) #10
  store ptr %11, ptr %15, align 8, !tbaa !36
  call void @llvm.lifetime.start.p0(i64 8, ptr %16) #10
  %81 = load ptr, ptr %15, align 8, !tbaa !36
  %82 = load ptr, ptr %81, align 8, !tbaa !19
  store ptr %82, ptr %16, align 8, !tbaa !19
  %83 = load ptr, ptr %16, align 8, !tbaa !19
  %84 = icmp ne ptr %83, null
  br i1 %84, label %85, label %88

85:                                               ; preds = %80
  %86 = load ptr, ptr %15, align 8, !tbaa !36
  store ptr null, ptr %86, align 8, !tbaa !19
  %87 = load ptr, ptr %16, align 8, !tbaa !19
  call void @Py_DECREF(ptr noundef %87)
  br label %88

88:                                               ; preds = %85, %80
  call void @llvm.lifetime.end.p0(i64 8, ptr %16) #10
  call void @llvm.lifetime.end.p0(i64 8, ptr %15) #10
  br label %89

89:                                               ; preds = %88
  br label %90

90:                                               ; preds = %89
  br i1 false, label %91, label %95

91:                                               ; preds = %90
  br label %92

92:                                               ; preds = %91, %78, %45, %29
  call void @PyErr_Clear()
  %93 = load ptr, ptr %9, align 8, !tbaa !19
  call void @Py_XDECREF(ptr noundef %93)
  %94 = load ptr, ptr %11, align 8, !tbaa !19
  call void @Py_XDECREF(ptr noundef %94)
  br label %95

95:                                               ; preds = %92, %90
  %96 = load i32, ptr %12, align 4, !tbaa !8
  call void @PyGILState_Release(i32 noundef %96)
  store i32 0, ptr %14, align 4
  br label %97

97:                                               ; preds = %95, %21
  call void @llvm.lifetime.end.p0(i64 8, ptr %13) #10
  call void @llvm.lifetime.end.p0(i64 4, ptr %12) #10
  call void @llvm.lifetime.end.p0(i64 8, ptr %11) #10
  call void @llvm.lifetime.end.p0(i64 8, ptr %10) #10
  call void @llvm.lifetime.end.p0(i64 8, ptr %9) #10
  call void @llvm.lifetime.end.p0(i64 8, ptr %8) #10
  call void @llvm.lifetime.end.p0(i64 4, ptr %7) #10
  %98 = load i32, ptr %14, align 4
  switch i32 %98, label %100 [
    i32 0, label %99
    i32 1, label %99
  ]

99:                                               ; preds = %97, %97
  ret void

100:                                              ; preds = %97
  unreachable
}