; Function Attrs: nounwind uwtable
define internal void @on_completion_display_matches_hook(ptr noundef readonly captures(none) %0, i32 noundef %1, i32 noundef %2) #0 {
  %4 = tail call i32 @PyGILState_Ensure() #14
  %5 = tail call ptr @PyState_FindModule(ptr noundef nonnull @readlinemodule) #14
  %6 = icmp eq ptr %5, null
  br i1 %6, label %get_hook_module_state.exit.thread, label %7

get_hook_module_state.exit.thread:                ; preds = %3
  tail call void @PyErr_Clear() #14
  br label %Py_DECREF.exit

7:                                                ; preds = %3
  %8 = load i32, ptr %5, align 8, !tbaa !25
  %9 = icmp slt i32 %8, 0
  br i1 %9, label %Py_INCREF.exit.i, label %10

10:                                               ; preds = %7
  %11 = add nuw i32 %8, 1
  store i32 %11, ptr %5, align 8, !tbaa !25
  br label %Py_INCREF.exit.i

Py_INCREF.exit.i:                                 ; preds = %10, %7
  %12 = tail call ptr @PyModule_GetState(ptr noundef nonnull %5) #14
  %13 = load i32, ptr %5, align 8, !tbaa !25
  %.not.i.i = icmp sgt i32 %13, -1
  br i1 %.not.i.i, label %14, label %get_hook_module_state.exit

14:                                               ; preds = %Py_INCREF.exit.i
  %15 = add nsw i32 %13, -1
  store i32 %15, ptr %5, align 8, !tbaa !25
  %16 = icmp eq i32 %15, 0
  br i1 %16, label %17, label %get_hook_module_state.exit

17:                                               ; preds = %14
  tail call void @_Py_Dealloc(ptr noundef nonnull %5) #14
  br label %get_hook_module_state.exit

get_hook_module_state.exit:                       ; preds = %Py_INCREF.exit.i, %14, %17
  %18 = icmp eq ptr %12, null
  br i1 %18, label %Py_DECREF.exit, label %19

19:                                               ; preds = %get_hook_module_state.exit
  %20 = sext i32 %1 to i64
  %21 = tail call ptr @PyList_New(i64 noundef %20) #14
  %22 = icmp eq ptr %21, null
  br i1 %22, label %Py_XDECREF.exit.thread48, label %.preheader

.preheader:                                       ; preds = %19
  %23 = icmp sgt i32 %1, 0
  br i1 %23, label %.lr.ph, label %._crit_edge

.lr.ph:                                           ; preds = %.preheader
  %24 = getelementptr i8, ptr %21, i64 24
  %wide.trip.count = zext nneg i32 %1 to i64
  br label %25

25:                                               ; preds = %.lr.ph, %30
  %indvars.iv = phi i64 [ 0, %.lr.ph ], [ %indvars.iv.next, %30 ]
  %indvars.iv.next = add nuw nsw i64 %indvars.iv, 1
  %26 = getelementptr ptr, ptr %0, i64 %indvars.iv.next
  %27 = load ptr, ptr %26, align 8, !tbaa !3
  %28 = tail call ptr @PyUnicode_DecodeLocale(ptr noundef %27, ptr noundef nonnull @.str.34) #14
  %29 = icmp eq ptr %28, null
  br i1 %29, label %49, label %30

30:                                               ; preds = %25
  %.val = load ptr, ptr %24, align 8, !tbaa !50
  %31 = getelementptr ptr, ptr %.val, i64 %indvars.iv
  store ptr %28, ptr %31, align 8, !tbaa !41
  %exitcond.not = icmp eq i64 %indvars.iv.next, %wide.trip.count
  br i1 %exitcond.not, label %._crit_edge, label %25, !llvm.loop !53

._crit_edge:                                      ; preds = %30, %.preheader
  %32 = load ptr, ptr %0, align 8, !tbaa !3
  %33 = tail call ptr @PyUnicode_DecodeLocale(ptr noundef %32, ptr noundef nonnull @.str.34) #14
  %34 = load ptr, ptr %12, align 8, !tbaa !37
  %35 = tail call ptr (ptr, ptr, ...) @PyObject_CallFunction(ptr noundef %34, ptr noundef nonnull @.str.45, ptr noundef %33, ptr noundef nonnull %21, i32 noundef %2) #14
  %36 = icmp eq ptr %35, null
  br i1 %36, label %Py_XDECREF.exit.thread48, label %37

37:                                               ; preds = %._crit_edge
  %.not = icmp eq ptr %35, @_Py_NoneStruct
  br i1 %.not, label %43, label %38

38:                                               ; preds = %37
  %39 = tail call i64 @PyLong_AsLong(ptr noundef nonnull %35) #14
  %40 = icmp eq i64 %39, -1
  br i1 %40, label %41, label %43

41:                                               ; preds = %38
  %42 = tail call ptr @PyErr_Occurred() #14
  %.not34 = icmp eq ptr %42, null
  br i1 %.not34, label %43, label %Py_XDECREF.exit

43:                                               ; preds = %41, %38, %37
  %44 = load i32, ptr %35, align 8, !tbaa !25
  %.not.i = icmp sgt i32 %44, -1
  br i1 %.not.i, label %45, label %Py_DECREF.exit

45:                                               ; preds = %43
  %46 = add nsw i32 %44, -1
  store i32 %46, ptr %35, align 8, !tbaa !25
  %47 = icmp eq i32 %46, 0
  br i1 %47, label %48, label %Py_DECREF.exit

48:                                               ; preds = %45
  tail call void @_Py_Dealloc(ptr noundef nonnull %35) #14
  br label %Py_DECREF.exit

49:                                               ; preds = %25
  tail call void @PyErr_Clear() #14
  %50 = load i32, ptr %21, align 8, !tbaa !25
  %.not.i.i36 = icmp sgt i32 %50, -1
  br i1 %.not.i.i36, label %51, label %Py_DECREF.exit

51:                                               ; preds = %49
  %52 = add nsw i32 %50, -1
  store i32 %52, ptr %21, align 8, !tbaa !25
  %53 = icmp eq i32 %52, 0
  br i1 %53, label %54, label %Py_DECREF.exit

54:                                               ; preds = %51
  tail call void @_Py_Dealloc(ptr noundef nonnull %21) #14
  br label %Py_DECREF.exit

Py_XDECREF.exit.thread48:                         ; preds = %._crit_edge, %19
  tail call void @PyErr_Clear() #14
  br label %Py_DECREF.exit

Py_XDECREF.exit:                                  ; preds = %41
  tail call void @PyErr_Clear() #14
  %55 = load i32, ptr %35, align 8, !tbaa !25
  %.not.i.i38 = icmp sgt i32 %55, -1
  br i1 %.not.i.i38, label %56, label %Py_DECREF.exit

56:                                               ; preds = %Py_XDECREF.exit
  %57 = add nsw i32 %55, -1
  store i32 %57, ptr %35, align 8, !tbaa !25
  %58 = icmp eq i32 %57, 0
  br i1 %58, label %59, label %Py_DECREF.exit

59:                                               ; preds = %56
  tail call void @_Py_Dealloc(ptr noundef nonnull %35) #14
  br label %Py_DECREF.exit

Py_DECREF.exit:                                   ; preds = %43, %45, %48, %Py_XDECREF.exit.thread48, %Py_XDECREF.exit, %56, %59, %49, %51, %54, %get_hook_module_state.exit, %get_hook_module_state.exit.thread
  tail call void @PyGILState_Release(i32 noundef %4) #14
  ret void
}